target datalayout = "e-m:e-p270:32:32-p271:32:32-p272:64:64-i64:64-i128:128-f80:128-n8:16:32:64-S128"
target triple = "x86_64-pc-linux-gnu"

%struct.mbedtls_x509write_cert = type { i32, [20 x i8], i64, ptr, ptr, ptr, ptr, i32, [16 x i8], [16 x i8], ptr }

; Function Attrs: nounwind uwtable
define hidden i32 @mbedtls_x509write_crt_set_validity(ptr noundef %0, ptr noundef %1, ptr noundef %2) #0 {
  %4 = alloca i32, align 4
  %5 = alloca ptr, align 8
  %6 = alloca ptr, align 8
  %7 = alloca ptr, align 8
  store ptr %0, ptr %5, align 8, !tbaa !3
  store ptr %1, ptr %6, align 8, !tbaa !19
  store ptr %2, ptr %7, align 8, !tbaa !19
  %8 = load ptr, ptr %6, align 8, !tbaa !19
  %9 = call i64 @strlen(ptr noundef %8) #9
  %10 = icmp ne i64 %9, 14
  br i1 %10, label %15, label %11

11:                                               ; preds = %3
  %12 = load ptr, ptr %7, align 8, !tbaa !19
  %13 = call i64 @strlen(ptr noundef %12) #9
  %14 = icmp ne i64 %13, 14
  br i1 %14, label %15, label %16

15:                                               ; preds = %11, %3
  store i32 -10240, ptr %4, align 4
  br label %33

16:                                               ; preds = %11
  %17 = load ptr, ptr %5, align 8, !tbaa !3
  %18 = getelementptr inbounds nuw %struct.mbedtls_x509write_cert, ptr %17, i32 0, i32 8
  %19 = getelementptr inbounds [16 x i8], ptr %18, i64 0, i64 0
  %20 = load ptr, ptr %6, align 8, !tbaa !19
  %21 = call ptr @strncpy(ptr noundef %19, ptr noundef %20, i64 noundef 15) #8
  %22 = load ptr, ptr %5, align 8, !tbaa !3
  %23 = getelementptr inbounds nuw %struct.mbedtls_x509write_cert, ptr %22, i32 0, i32 9
  %24 = getelementptr inbounds [16 x i8], ptr %23, i64 0, i64 0
  %25 = load ptr, ptr %7, align 8, !tbaa !19
  %26 = call ptr @strncpy(ptr noundef %24, ptr noundef %25, i64 noundef 15) #8
  %27 = load ptr, ptr %5, align 8, !tbaa !3
  %28 = getelementptr inbounds nuw %struct.mbedtls_x509write_cert, ptr %27, i32 0, i32 8
  %29 = getelementptr inbounds [16 x i8], ptr %28, i64 0, i64 14
  store i8 90, ptr %29, align 2, !tbaa !25
  %30 = load ptr, ptr %5, align 8, !tbaa !3
  %31 = getelementptr inbounds nuw %struct.mbedtls_x509write_cert, ptr %30, i32 0, i32 9
  %32 = getelementptr inbounds [16 x i8], ptr %31, i64 0, i64 14
  store i8 90, ptr %32, align 2, !tbaa !25
  store i32 0, ptr %4, align 4
  br label %33

33:                                               ; preds = %16, %15
  %34 = load i32, ptr %4, align 4
  ret i32 %34
}