; Function Attrs: mustprogress nofree nounwind willreturn memory(argmem: readwrite) uwtable
define hidden range(i32 -10240, 1) i32 @mbedtls_x509write_crt_set_validity(ptr noundef %0, ptr noundef readonly captures(none) %1, ptr noundef readonly captures(none) %2) local_unnamed_addr #7 {
  %4 = tail call i64 @strlen(ptr noundef nonnull dereferenceable(1) %1) #12
  %.not = icmp eq i64 %4, 14
  br i1 %.not, label %5, label %14

5:                                                ; preds = %3
  %6 = tail call i64 @strlen(ptr noundef nonnull dereferenceable(1) %2) #12
  %.not8 = icmp eq i64 %6, 14
  br i1 %.not8, label %7, label %14

7:                                                ; preds = %5
  %8 = getelementptr inbounds nuw i8, ptr %0, i64 68
  %9 = tail call ptr @strncpy(ptr noundef nonnull dereferenceable(1) %8, ptr noundef nonnull dereferenceable(1) %1, i64 noundef 15) #11
  %10 = getelementptr inbounds nuw i8, ptr %0, i64 84
  %11 = tail call ptr @strncpy(ptr noundef nonnull dereferenceable(1) %10, ptr noundef nonnull dereferenceable(1) %2, i64 noundef 15) #11
  %12 = getelementptr inbounds nuw i8, ptr %0, i64 82
  store i8 90, ptr %12, align 2, !tbaa !16
  %13 = getelementptr inbounds nuw i8, ptr %0, i64 98
  store i8 90, ptr %13, align 2, !tbaa !16
  br label %14

14:                                               ; preds = %3, %5, %7
  %.0 = phi i32 [ 0, %7 ], [ -10240, %5 ], [ -10240, %3 ]
  ret i32 %.0
}